ARM GAS  C:\Users\koppany\AppData\Local\Temp\ccsf4g9Q.s 			page 1


   1              		.syntax unified
   2              		.cpu cortex-m3
   3              		.fpu softvfp
   4              		.eabi_attribute 20, 1
   5              		.eabi_attribute 21, 1
   6              		.eabi_attribute 23, 3
   7              		.eabi_attribute 24, 1
   8              		.eabi_attribute 25, 1
   9              		.eabi_attribute 26, 1
  10              		.eabi_attribute 30, 1
  11              		.eabi_attribute 34, 1
  12              		.eabi_attribute 18, 4
  13              		.thumb
  14              		.syntax unified
  15              		.file	"main.c"
  16              		.text
  17              	.Ltext0:
  18              		.cfi_sections	.debug_frame
  19              		.section	.text.One_Sec_Handler,"ax",%progbits
  20              		.align	2
  21              		.global	One_Sec_Handler
  22              		.thumb
  23              		.thumb_func
  24              		.type	One_Sec_Handler, %function
  25              	One_Sec_Handler:
  26              	.LFB64:
  27              		.file 1 "main.c"
   1:main.c        **** /* ========================================
   2:main.c        ****  *
   3:main.c        ****  * Copyright YOUR COMPANY, THE YEAR
   4:main.c        ****  * All Rights Reserved
   5:main.c        ****  * UNPUBLISHED, LICENSED SOFTWARE.
   6:main.c        ****  *
   7:main.c        ****  * CONFIDENTIAL AND PROPRIETARY INFORMATION
   8:main.c        ****  * WHICH IS THE PROPERTY OF your company.
   9:main.c        ****  *
  10:main.c        ****  * ========================================
  11:main.c        **** */
  12:main.c        **** #include "project.h"
  13:main.c        **** #include "stdio.h"
  14:main.c        **** 
  15:main.c        **** #define READY 0
  16:main.c        **** #define RUNNING 1
  17:main.c        **** #define END 2
  18:main.c        **** #define TARGETCOUNT 3
  19:main.c        **** #define _OR ||
  20:main.c        **** #define EEPROM_ADDR 100
  21:main.c        **** 
  22:main.c        **** void ActivateTarget(int id);
  23:main.c        **** 
  24:main.c        **** volatile int state;
  25:main.c        **** volatile int time = 0;
  26:main.c        **** volatile int timeout_flag = 0;
  27:main.c        **** volatile int points = 0;
  28:main.c        **** volatile int finished = 0;
  29:main.c        **** int active_target = -1;
  30:main.c        **** 
ARM GAS  C:\Users\koppany\AppData\Local\Temp\ccsf4g9Q.s 			page 2


  31:main.c        **** CY_ISR(One_Sec_Handler){
  28              		.loc 1 31 0
  29              		.cfi_startproc
  30              		@ args = 0, pretend = 0, frame = 32
  31              		@ frame_needed = 0, uses_anonymous_args = 0
  32 0000 00B5     		push	{lr}
  33              		.cfi_def_cfa_offset 4
  34              		.cfi_offset 14, -4
  35 0002 89B0     		sub	sp, sp, #36
  36              		.cfi_def_cfa_offset 40
  32:main.c        ****     time--;
  37              		.loc 1 32 0
  38 0004 084B     		ldr	r3, .L3
  39 0006 1A68     		ldr	r2, [r3]
  40 0008 013A     		subs	r2, r2, #1
  41 000a 1A60     		str	r2, [r3]
  33:main.c        ****     char message[32];
  34:main.c        ****     sprintf(message, "Time: %d, Score: %d\r\n", time, points);  //Format and print data into a stri
  42              		.loc 1 34 0
  43 000c 1A68     		ldr	r2, [r3]
  44 000e 5B68     		ldr	r3, [r3, #4]
  45 0010 0649     		ldr	r1, .L3+4
  46 0012 6846     		mov	r0, sp
  47 0014 FFF7FEFF 		bl	sprintf
  48              	.LVL0:
  35:main.c        ****     UART_BT_PutString(message);                                 //Print to UART
  49              		.loc 1 35 0
  50 0018 6846     		mov	r0, sp
  51 001a FFF7FEFF 		bl	UART_BT_PutString
  52              	.LVL1:
  36:main.c        ****     One_Sec_Timer_ReadStatusRegister();                         //Clear interrupt source
  53              		.loc 1 36 0
  54 001e FFF7FEFF 		bl	One_Sec_Timer_ReadStatusRegister
  55              	.LVL2:
  37:main.c        **** }
  56              		.loc 1 37 0
  57 0022 09B0     		add	sp, sp, #36
  58              		.cfi_def_cfa_offset 4
  59              		@ sp needed
  60 0024 5DF804FB 		ldr	pc, [sp], #4
  61              	.L4:
  62              		.align	2
  63              	.L3:
  64 0028 00000000 		.word	.LANCHOR0
  65 002c 00000000 		.word	.LC0
  66              		.cfi_endproc
  67              	.LFE64:
  68              		.size	One_Sec_Handler, .-One_Sec_Handler
  69              		.section	.text.ActivateTarget,"ax",%progbits
  70              		.align	2
  71              		.global	ActivateTarget
  72              		.thumb
  73              		.thumb_func
  74              		.type	ActivateTarget, %function
  75              	ActivateTarget:
  76              	.LFB66:
  38:main.c        **** 
ARM GAS  C:\Users\koppany\AppData\Local\Temp\ccsf4g9Q.s 			page 3


  39:main.c        **** //When the debounce timer is finished, it signals end of timeout
  40:main.c        **** CY_ISR(Button_Timeout_Handler){
  41:main.c        ****     timeout_flag = 0;                                           //No timeout
  42:main.c        ****     points++;
  43:main.c        ****     UART_BT_PutString("hit\r\n");                               //Print "hit" to UART
  44:main.c        ****     Debounce_Timer_ReadStatusRegister();                        //Clear interrupt source
  45:main.c        ****     Debounce_Timer_Stop();                                      //Stop the timer
  46:main.c        ****     int target = active_target;
  47:main.c        ****     if(active_target >= 3 ){
  48:main.c        ****         target = 1;
  49:main.c        ****     } else {
  50:main.c        ****         target++;
  51:main.c        ****     }
  52:main.c        ****     ActivateTarget(target);
  53:main.c        **** }
  54:main.c        **** 
  55:main.c        **** //Activate a given target
  56:main.c        **** void ActivateTarget(int id){
  77              		.loc 1 56 0
  78              		.cfi_startproc
  79              		@ args = 0, pretend = 0, frame = 0
  80              		@ frame_needed = 0, uses_anonymous_args = 0
  81              	.LVL3:
  82 0000 10B5     		push	{r4, lr}
  83              		.cfi_def_cfa_offset 8
  84              		.cfi_offset 4, -8
  85              		.cfi_offset 14, -4
  86 0002 0446     		mov	r4, r0
  57:main.c        ****     //Deactivate last target
  58:main.c        ****     switch(active_target){
  87              		.loc 1 58 0
  88 0004 134B     		ldr	r3, .L15
  89 0006 1B68     		ldr	r3, [r3]
  90 0008 022B     		cmp	r3, #2
  91 000a 07D0     		beq	.L7
  92 000c 032B     		cmp	r3, #3
  93 000e 09D0     		beq	.L8
  94 0010 012B     		cmp	r3, #1
  95 0012 0AD1     		bne	.L6
  59:main.c        ****         case 1:
  60:main.c        ****             Target_LED_1_Write(0);
  96              		.loc 1 60 0
  97 0014 0020     		movs	r0, #0
  98              	.LVL4:
  99 0016 FFF7FEFF 		bl	Target_LED_1_Write
 100              	.LVL5:
  61:main.c        ****             break;
 101              		.loc 1 61 0
 102 001a 06E0     		b	.L6
 103              	.LVL6:
 104              	.L7:
  62:main.c        ****         case 2:
  63:main.c        ****             Target_LED_2_Write(0);
 105              		.loc 1 63 0
 106 001c 0020     		movs	r0, #0
 107              	.LVL7:
 108 001e FFF7FEFF 		bl	Target_LED_2_Write
ARM GAS  C:\Users\koppany\AppData\Local\Temp\ccsf4g9Q.s 			page 4


 109              	.LVL8:
  64:main.c        ****             break;
 110              		.loc 1 64 0
 111 0022 02E0     		b	.L6
 112              	.LVL9:
 113              	.L8:
  65:main.c        ****         case 3:
  66:main.c        ****             Target_LED_3_Write(0);
 114              		.loc 1 66 0
 115 0024 0020     		movs	r0, #0
 116              	.LVL10:
 117 0026 FFF7FEFF 		bl	Target_LED_3_Write
 118              	.LVL11:
 119              	.L6:
  67:main.c        ****             break;
  68:main.c        ****         default:
  69:main.c        ****             break;
  70:main.c        ****     }
  71:main.c        ****     //Target_LED_1_Write(0);
  72:main.c        ****     //Target_LED_2_Write(0);
  73:main.c        ****     //Target_LED_3_Write(0);
  74:main.c        ****     //Activate current target
  75:main.c        ****     active_target = id;
 120              		.loc 1 75 0
 121 002a 0A4B     		ldr	r3, .L15
 122 002c 1C60     		str	r4, [r3]
  76:main.c        ****     switch(id){                                                 //Turn on the active target's LED
 123              		.loc 1 76 0
 124 002e 022C     		cmp	r4, #2
 125 0030 07D0     		beq	.L11
 126 0032 032C     		cmp	r4, #3
 127 0034 09D0     		beq	.L12
 128 0036 012C     		cmp	r4, #1
 129 0038 0AD1     		bne	.L5
  77:main.c        ****         case 1:
  78:main.c        ****             Target_LED_1_Write(1);
 130              		.loc 1 78 0
 131 003a 0120     		movs	r0, #1
 132 003c FFF7FEFF 		bl	Target_LED_1_Write
 133              	.LVL12:
  79:main.c        ****             break;
 134              		.loc 1 79 0
 135 0040 10BD     		pop	{r4, pc}
 136              	.LVL13:
 137              	.L11:
  80:main.c        ****         case 2:
  81:main.c        ****             Target_LED_2_Write(1);
 138              		.loc 1 81 0
 139 0042 0120     		movs	r0, #1
 140 0044 FFF7FEFF 		bl	Target_LED_2_Write
 141              	.LVL14:
  82:main.c        ****             break;
 142              		.loc 1 82 0
 143 0048 10BD     		pop	{r4, pc}
 144              	.LVL15:
 145              	.L12:
  83:main.c        ****         case 3:
ARM GAS  C:\Users\koppany\AppData\Local\Temp\ccsf4g9Q.s 			page 5


  84:main.c        ****             Target_LED_3_Write(1);
 146              		.loc 1 84 0
 147 004a 0120     		movs	r0, #1
 148 004c FFF7FEFF 		bl	Target_LED_3_Write
 149              	.LVL16:
 150              	.L5:
 151 0050 10BD     		pop	{r4, pc}
 152              	.LVL17:
 153              	.L16:
 154 0052 00BF     		.align	2
 155              	.L15:
 156 0054 00000000 		.word	.LANCHOR1
 157              		.cfi_endproc
 158              	.LFE66:
 159              		.size	ActivateTarget, .-ActivateTarget
 160              		.section	.text.Button_Timeout_Handler,"ax",%progbits
 161              		.align	2
 162              		.global	Button_Timeout_Handler
 163              		.thumb
 164              		.thumb_func
 165              		.type	Button_Timeout_Handler, %function
 166              	Button_Timeout_Handler:
 167              	.LFB65:
  40:main.c        ****     timeout_flag = 0;                                           //No timeout
 168              		.loc 1 40 0
 169              		.cfi_startproc
 170              		@ args = 0, pretend = 0, frame = 0
 171              		@ frame_needed = 0, uses_anonymous_args = 0
 172 0000 08B5     		push	{r3, lr}
 173              		.cfi_def_cfa_offset 8
 174              		.cfi_offset 3, -8
 175              		.cfi_offset 14, -4
  41:main.c        ****     points++;
 176              		.loc 1 41 0
 177 0002 0B4B     		ldr	r3, .L21
 178 0004 0022     		movs	r2, #0
 179 0006 9A60     		str	r2, [r3, #8]
  42:main.c        ****     UART_BT_PutString("hit\r\n");                               //Print "hit" to UART
 180              		.loc 1 42 0
 181 0008 5A68     		ldr	r2, [r3, #4]
 182 000a 0132     		adds	r2, r2, #1
 183 000c 5A60     		str	r2, [r3, #4]
  43:main.c        ****     Debounce_Timer_ReadStatusRegister();                        //Clear interrupt source
 184              		.loc 1 43 0
 185 000e 0948     		ldr	r0, .L21+4
 186 0010 FFF7FEFF 		bl	UART_BT_PutString
 187              	.LVL18:
  44:main.c        ****     Debounce_Timer_Stop();                                      //Stop the timer
 188              		.loc 1 44 0
 189 0014 FFF7FEFF 		bl	Debounce_Timer_ReadStatusRegister
 190              	.LVL19:
  45:main.c        ****     int target = active_target;
 191              		.loc 1 45 0
 192 0018 FFF7FEFF 		bl	Debounce_Timer_Stop
 193              	.LVL20:
  46:main.c        ****     if(active_target >= 3 ){
 194              		.loc 1 46 0
ARM GAS  C:\Users\koppany\AppData\Local\Temp\ccsf4g9Q.s 			page 6


 195 001c 064B     		ldr	r3, .L21+8
 196 001e 1868     		ldr	r0, [r3]
 197              	.LVL21:
  47:main.c        ****         target = 1;
 198              		.loc 1 47 0
 199 0020 0228     		cmp	r0, #2
 200 0022 01DC     		bgt	.L19
  50:main.c        ****     }
 201              		.loc 1 50 0
 202 0024 0130     		adds	r0, r0, #1
 203              	.LVL22:
 204 0026 00E0     		b	.L18
 205              	.L19:
  48:main.c        ****     } else {
 206              		.loc 1 48 0
 207 0028 0120     		movs	r0, #1
 208              	.LVL23:
 209              	.L18:
  52:main.c        **** }
 210              		.loc 1 52 0
 211 002a FFF7FEFF 		bl	ActivateTarget
 212              	.LVL24:
 213 002e 08BD     		pop	{r3, pc}
 214              	.L22:
 215              		.align	2
 216              	.L21:
 217 0030 00000000 		.word	.LANCHOR0
 218 0034 18000000 		.word	.LC1
 219 0038 00000000 		.word	.LANCHOR1
 220              		.cfi_endproc
 221              	.LFE65:
 222              		.size	Button_Timeout_Handler, .-Button_Timeout_Handler
 223              		.section	.text.getActiveTargetState,"ax",%progbits
 224              		.align	2
 225              		.global	getActiveTargetState
 226              		.thumb
 227              		.thumb_func
 228              		.type	getActiveTargetState, %function
 229              	getActiveTargetState:
 230              	.LFB67:
  85:main.c        ****             break;
  86:main.c        ****         default:
  87:main.c        ****             break;
  88:main.c        ****     }
  89:main.c        **** }
  90:main.c        **** 
  91:main.c        **** //Return the active target's hit status
  92:main.c        **** //Invert reading because buttons are active low
  93:main.c        **** int getActiveTargetState(){
 231              		.loc 1 93 0
 232              		.cfi_startproc
 233              		@ args = 0, pretend = 0, frame = 0
 234              		@ frame_needed = 0, uses_anonymous_args = 0
 235 0000 08B5     		push	{r3, lr}
 236              		.cfi_def_cfa_offset 8
 237              		.cfi_offset 3, -8
 238              		.cfi_offset 14, -4
ARM GAS  C:\Users\koppany\AppData\Local\Temp\ccsf4g9Q.s 			page 7


  94:main.c        ****     switch(active_target){
 239              		.loc 1 94 0
 240 0002 0E4B     		ldr	r3, .L31
 241 0004 1B68     		ldr	r3, [r3]
 242 0006 022B     		cmp	r3, #2
 243 0008 09D0     		beq	.L25
 244 000a 032B     		cmp	r3, #3
 245 000c 0DD0     		beq	.L26
 246 000e 012B     		cmp	r3, #1
 247 0010 11D1     		bne	.L29
  95:main.c        ****         case 1:
  96:main.c        ****             return !Target_BTN_1_Read();            
 248              		.loc 1 96 0
 249 0012 FFF7FEFF 		bl	Target_BTN_1_Read
 250              	.LVL25:
 251 0016 B0FA80F0 		clz	r0, r0
 252 001a 4009     		lsrs	r0, r0, #5
 253 001c 08BD     		pop	{r3, pc}
 254              	.L25:
  97:main.c        ****         case 2:
  98:main.c        ****             return !Target_BTN_2_Read();            
 255              		.loc 1 98 0
 256 001e FFF7FEFF 		bl	Target_BTN_2_Read
 257              	.LVL26:
 258 0022 B0FA80F0 		clz	r0, r0
 259 0026 4009     		lsrs	r0, r0, #5
 260 0028 08BD     		pop	{r3, pc}
 261              	.L26:
  99:main.c        ****         case 3:
 100:main.c        ****             return !Target_BTN_3_Read();            
 262              		.loc 1 100 0
 263 002a FFF7FEFF 		bl	Target_BTN_3_Read
 264              	.LVL27:
 265 002e B0FA80F0 		clz	r0, r0
 266 0032 4009     		lsrs	r0, r0, #5
 267 0034 08BD     		pop	{r3, pc}
 268              	.L29:
 101:main.c        ****         default:
 102:main.c        ****             return 0;       
 269              		.loc 1 102 0
 270 0036 0020     		movs	r0, #0
 103:main.c        ****     }
 104:main.c        **** }
 271              		.loc 1 104 0
 272 0038 08BD     		pop	{r3, pc}
 273              	.L32:
 274 003a 00BF     		.align	2
 275              	.L31:
 276 003c 00000000 		.word	.LANCHOR1
 277              		.cfi_endproc
 278              	.LFE67:
 279              		.size	getActiveTargetState, .-getActiveTargetState
 280              		.section	.text.Init,"ax",%progbits
 281              		.align	2
 282              		.global	Init
 283              		.thumb
 284              		.thumb_func
ARM GAS  C:\Users\koppany\AppData\Local\Temp\ccsf4g9Q.s 			page 8


 285              		.type	Init, %function
 286              	Init:
 287              	.LFB68:
 105:main.c        **** 
 106:main.c        **** void Init(){
 288              		.loc 1 106 0
 289              		.cfi_startproc
 290              		@ args = 0, pretend = 0, frame = 0
 291              		@ frame_needed = 0, uses_anonymous_args = 0
 292 0000 08B5     		push	{r3, lr}
 293              		.cfi_def_cfa_offset 8
 294              		.cfi_offset 3, -8
 295              		.cfi_offset 14, -4
 107:main.c        ****     Debounce_Timer_Init();
 296              		.loc 1 107 0
 297 0002 FFF7FEFF 		bl	Debounce_Timer_Init
 298              	.LVL28:
 108:main.c        ****     One_Sec_Timer_Init();
 299              		.loc 1 108 0
 300 0006 FFF7FEFF 		bl	One_Sec_Timer_Init
 301              	.LVL29:
 109:main.c        ****     UART_BT_Start();
 302              		.loc 1 109 0
 303 000a FFF7FEFF 		bl	UART_BT_Start
 304              	.LVL30:
 110:main.c        ****     UART_BT_PutString("hello\r\n");    
 305              		.loc 1 110 0
 306 000e 0748     		ldr	r0, .L35
 307 0010 FFF7FEFF 		bl	UART_BT_PutString
 308              	.LVL31:
 111:main.c        ****     ISR_One_Sec_StartEx(One_Sec_Handler);
 309              		.loc 1 111 0
 310 0014 0648     		ldr	r0, .L35+4
 311 0016 FFF7FEFF 		bl	ISR_One_Sec_StartEx
 312              	.LVL32:
 112:main.c        ****     ISR_Button_Timeout_StartEx(Button_Timeout_Handler);
 313              		.loc 1 112 0
 314 001a 0648     		ldr	r0, .L35+8
 315 001c FFF7FEFF 		bl	ISR_Button_Timeout_StartEx
 316              	.LVL33:
 113:main.c        ****     EEPROM_Start();
 317              		.loc 1 113 0
 318 0020 FFF7FEFF 		bl	EEPROM_Start
 319              	.LVL34:
 114:main.c        ****     ActivateTarget(1);
 320              		.loc 1 114 0
 321 0024 0120     		movs	r0, #1
 322 0026 FFF7FEFF 		bl	ActivateTarget
 323              	.LVL35:
 324 002a 08BD     		pop	{r3, pc}
 325              	.L36:
 326              		.align	2
 327              	.L35:
 328 002c 20000000 		.word	.LC2
 329 0030 00000000 		.word	One_Sec_Handler
 330 0034 00000000 		.word	Button_Timeout_Handler
 331              		.cfi_endproc
ARM GAS  C:\Users\koppany\AppData\Local\Temp\ccsf4g9Q.s 			page 9


 332              	.LFE68:
 333              		.size	Init, .-Init
 334              		.section	.text.main,"ax",%progbits
 335              		.align	2
 336              		.global	main
 337              		.thumb
 338              		.thumb_func
 339              		.type	main, %function
 340              	main:
 341              	.LFB69:
 115:main.c        **** }
 116:main.c        **** 
 117:main.c        **** int main(void)
 118:main.c        **** {
 342              		.loc 1 118 0
 343              		.cfi_startproc
 344              		@ args = 0, pretend = 0, frame = 64
 345              		@ frame_needed = 0, uses_anonymous_args = 0
 346 0000 10B5     		push	{r4, lr}
 347              		.cfi_def_cfa_offset 8
 348              		.cfi_offset 4, -8
 349              		.cfi_offset 14, -4
 350 0002 90B0     		sub	sp, sp, #64
 351              		.cfi_def_cfa_offset 72
 119:main.c        ****     CyGlobalIntEnable; /* Enable global interrupts. */
 352              		.loc 1 119 0
 353              		.syntax unified
 354              	@ 119 "main.c" 1
 355 0004 62B6     		CPSIE   i
 356              	@ 0 "" 2
 120:main.c        ****     Init();
 357              		.loc 1 120 0
 358              		.thumb
 359              		.syntax unified
 360 0006 FFF7FEFF 		bl	Init
 361              	.LVL36:
 121:main.c        ****     int highScore = EEPROM_ReadByte(EEPROM_ADDR);
 362              		.loc 1 121 0
 363 000a 6420     		movs	r0, #100
 364 000c FFF7FEFF 		bl	EEPROM_ReadByte
 365              	.LVL37:
 366 0010 0246     		mov	r2, r0
 367 0012 0446     		mov	r4, r0
 368              	.LVL38:
 122:main.c        ****     char message[32];
 123:main.c        ****     sprintf(message, "Current High Score: %d\r\n", highScore);  //Format and print data into a stri
 369              		.loc 1 123 0
 370 0014 3649     		ldr	r1, .L49
 371 0016 08A8     		add	r0, sp, #32
 372              	.LVL39:
 373 0018 FFF7FEFF 		bl	sprintf
 374              	.LVL40:
 124:main.c        ****     UART_BT_PutString(message);
 375              		.loc 1 124 0
 376 001c 08A8     		add	r0, sp, #32
 377 001e FFF7FEFF 		bl	UART_BT_PutString
 378              	.LVL41:
ARM GAS  C:\Users\koppany\AppData\Local\Temp\ccsf4g9Q.s 			page 10


 125:main.c        ****     state = READY;
 379              		.loc 1 125 0
 380 0022 0022     		movs	r2, #0
 381 0024 334B     		ldr	r3, .L49+4
 382 0026 1A60     		str	r2, [r3]
 383              	.L39:
 126:main.c        ****     for(;;)
 127:main.c        ****     {
 128:main.c        ****         switch(state){            
 384              		.loc 1 128 0
 385 0028 324B     		ldr	r3, .L49+4
 386 002a 1B68     		ldr	r3, [r3]
 387 002c 012B     		cmp	r3, #1
 388 002e 15D0     		beq	.L40
 389 0030 022B     		cmp	r3, #2
 390 0032 30D0     		beq	.L41
 391 0034 002B     		cmp	r3, #0
 392 0036 F7D1     		bne	.L39
 129:main.c        ****             case READY: {
 130:main.c        ****                 time = 60;
 393              		.loc 1 130 0
 394 0038 2F4B     		ldr	r3, .L49+8
 395 003a 3C22     		movs	r2, #60
 396 003c 1A60     		str	r2, [r3]
 131:main.c        ****                 points = 0;
 397              		.loc 1 131 0
 398 003e 0022     		movs	r2, #0
 399 0040 5A60     		str	r2, [r3, #4]
 132:main.c        ****                 if((char)UART_BT_GetChar() == 's'){             //READY -> RUNNING if 's' received 
 400              		.loc 1 132 0
 401 0042 FFF7FEFF 		bl	UART_BT_GetChar
 402              	.LVL42:
 403 0046 7328     		cmp	r0, #115
 404 0048 EED1     		bne	.L39
 133:main.c        ****                     LED_Write(1);                           //Signal running state with built-in LE
 405              		.loc 1 133 0
 406 004a 0120     		movs	r0, #1
 407 004c FFF7FEFF 		bl	LED_Write
 408              	.LVL43:
 134:main.c        ****                     state = RUNNING;
 409              		.loc 1 134 0
 410 0050 0122     		movs	r2, #1
 411 0052 284B     		ldr	r3, .L49+4
 412 0054 1A60     		str	r2, [r3]
 135:main.c        ****                     One_Sec_Timer_Start();
 413              		.loc 1 135 0
 414 0056 FFF7FEFF 		bl	One_Sec_Timer_Start
 415              	.LVL44:
 416 005a E5E7     		b	.L39
 417              	.L40:
 136:main.c        ****                 }
 137:main.c        ****                 break;
 138:main.c        ****             }
 139:main.c        ****             case RUNNING: {
 140:main.c        ****                 if(getActiveTargetState() && !timeout_flag){    //active target is hit and currentl
 418              		.loc 1 140 0
 419 005c FFF7FEFF 		bl	getActiveTargetState
ARM GAS  C:\Users\koppany\AppData\Local\Temp\ccsf4g9Q.s 			page 11


 420              	.LVL45:
 421 0060 38B1     		cbz	r0, .L44
 422              		.loc 1 140 0 is_stmt 0 discriminator 1
 423 0062 254B     		ldr	r3, .L49+8
 424 0064 9B68     		ldr	r3, [r3, #8]
 425 0066 23B9     		cbnz	r3, .L44
 141:main.c        ****                     timeout_flag = 1;
 426              		.loc 1 141 0 is_stmt 1
 427 0068 0122     		movs	r2, #1
 428 006a 234B     		ldr	r3, .L49+8
 429 006c 9A60     		str	r2, [r3, #8]
 142:main.c        ****                     Debounce_Timer_Start();                     //start timeout to avoid reading mu
 430              		.loc 1 142 0
 431 006e FFF7FEFF 		bl	Debounce_Timer_Start
 432              	.LVL46:
 433              	.L44:
 143:main.c        ****                 }
 144:main.c        ****                 if(time <= 0){                                  //RUNNING -> END if time is up 
 434              		.loc 1 144 0
 435 0072 214B     		ldr	r3, .L49+8
 436 0074 1B68     		ldr	r3, [r3]
 437 0076 002B     		cmp	r3, #0
 438 0078 D6DC     		bgt	.L39
 145:main.c        ****                     Debounce_Timer_Stop();                      //Stop timers
 439              		.loc 1 145 0
 440 007a FFF7FEFF 		bl	Debounce_Timer_Stop
 441              	.LVL47:
 146:main.c        ****                     One_Sec_Timer_Stop();                       //
 442              		.loc 1 146 0
 443 007e FFF7FEFF 		bl	One_Sec_Timer_Stop
 444              	.LVL48:
 147:main.c        ****                     LED_Write(0);                               //Turn off built-in LED
 445              		.loc 1 147 0
 446 0082 0020     		movs	r0, #0
 447 0084 FFF7FEFF 		bl	LED_Write
 448              	.LVL49:
 148:main.c        ****                     state = END;
 449              		.loc 1 148 0
 450 0088 0222     		movs	r2, #2
 451 008a 1A4B     		ldr	r3, .L49+4
 452 008c 1A60     		str	r2, [r3]
 149:main.c        ****                     ActivateTarget(0);
 453              		.loc 1 149 0
 454 008e 0020     		movs	r0, #0
 455 0090 FFF7FEFF 		bl	ActivateTarget
 456              	.LVL50:
 457 0094 C8E7     		b	.L39
 458              	.L41:
 150:main.c        ****                 }                               
 151:main.c        ****                 
 152:main.c        ****                 break;
 153:main.c        ****             }
 154:main.c        ****             case END: {
 155:main.c        ****                 if(!finished){
 459              		.loc 1 155 0
 460 0096 184B     		ldr	r3, .L49+8
 461 0098 DB68     		ldr	r3, [r3, #12]
ARM GAS  C:\Users\koppany\AppData\Local\Temp\ccsf4g9Q.s 			page 12


 462 009a ABB9     		cbnz	r3, .L45
 463              	.LBB2:
 156:main.c        ****                     int highScore = EEPROM_ReadByte(EEPROM_ADDR);   //Read last highscore
 464              		.loc 1 156 0
 465 009c 6420     		movs	r0, #100
 466 009e FFF7FEFF 		bl	EEPROM_ReadByte
 467              	.LVL51:
 157:main.c        ****                     if(points > highScore || highScore == 255){     //Write if necessary, check if 
 468              		.loc 1 157 0
 469 00a2 154B     		ldr	r3, .L49+8
 470 00a4 5B68     		ldr	r3, [r3, #4]
 471 00a6 9842     		cmp	r0, r3
 472 00a8 01DB     		blt	.L46
 473              		.loc 1 157 0 is_stmt 0 discriminator 1
 474 00aa FF28     		cmp	r0, #255
 475 00ac 08D1     		bne	.L47
 476              	.L46:
 158:main.c        ****                         UART_BT_PutString("New High Score\r\n");
 477              		.loc 1 158 0 is_stmt 1
 478 00ae 1348     		ldr	r0, .L49+12
 479              	.LVL52:
 480 00b0 FFF7FEFF 		bl	UART_BT_PutString
 481              	.LVL53:
 159:main.c        ****                         EEPROM_WriteByte(points, EEPROM_ADDR);
 482              		.loc 1 159 0
 483 00b4 104B     		ldr	r3, .L49+8
 484 00b6 5868     		ldr	r0, [r3, #4]
 485 00b8 6421     		movs	r1, #100
 486 00ba C0B2     		uxtb	r0, r0
 487 00bc FFF7FEFF 		bl	EEPROM_WriteByte
 488              	.LVL54:
 489              	.L47:
 160:main.c        ****                     }
 161:main.c        ****                     finished = 1;
 490              		.loc 1 161 0
 491 00c0 0122     		movs	r2, #1
 492 00c2 0D4B     		ldr	r3, .L49+8
 493 00c4 DA60     		str	r2, [r3, #12]
 494              	.LBE2:
 495 00c6 AFE7     		b	.L39
 496              	.L45:
 162:main.c        ****                 } else if((char)UART_BT_GetChar() == 'r'){         //END -> READY if 'r' received t
 497              		.loc 1 162 0
 498 00c8 FFF7FEFF 		bl	UART_BT_GetChar
 499              	.LVL55:
 500 00cc 7228     		cmp	r0, #114
 501 00ce ABD1     		bne	.L39
 502              	.LBB3:
 163:main.c        ****                     state = READY;
 503              		.loc 1 163 0
 504 00d0 0022     		movs	r2, #0
 505 00d2 084B     		ldr	r3, .L49+4
 506 00d4 1A60     		str	r2, [r3]
 164:main.c        ****                     ActivateTarget(1);
 507              		.loc 1 164 0
 508 00d6 0120     		movs	r0, #1
 509 00d8 FFF7FEFF 		bl	ActivateTarget
ARM GAS  C:\Users\koppany\AppData\Local\Temp\ccsf4g9Q.s 			page 13


 510              	.LVL56:
 165:main.c        ****                     char message[32];
 166:main.c        ****                     sprintf(message, "Current High Score: %d\r\n", highScore);  //Format and print 
 511              		.loc 1 166 0
 512 00dc 2246     		mov	r2, r4
 513 00de 0449     		ldr	r1, .L49
 514 00e0 6846     		mov	r0, sp
 515 00e2 FFF7FEFF 		bl	sprintf
 516              	.LVL57:
 167:main.c        ****                     UART_BT_PutString(message);
 517              		.loc 1 167 0
 518 00e6 6846     		mov	r0, sp
 519 00e8 FFF7FEFF 		bl	UART_BT_PutString
 520              	.LVL58:
 521 00ec 9CE7     		b	.L39
 522              	.L50:
 523 00ee 00BF     		.align	2
 524              	.L49:
 525 00f0 28000000 		.word	.LC3
 526 00f4 00000000 		.word	state
 527 00f8 00000000 		.word	.LANCHOR0
 528 00fc 44000000 		.word	.LC4
 529              	.LBE3:
 530              		.cfi_endproc
 531              	.LFE69:
 532              		.size	main, .-main
 533              		.global	active_target
 534              		.global	finished
 535              		.global	points
 536              		.global	timeout_flag
 537              		.global	time
 538              		.comm	state,4,4
 539              		.data
 540              		.align	2
 541              		.set	.LANCHOR1,. + 0
 542              		.type	active_target, %object
 543              		.size	active_target, 4
 544              	active_target:
 545 0000 FFFFFFFF 		.word	-1
 546              		.section	.rodata.str1.4,"aMS",%progbits,1
 547              		.align	2
 548              	.LC0:
 549 0000 54696D65 		.ascii	"Time: %d, Score: %d\015\012\000"
 549      3A202564 
 549      2C205363 
 549      6F72653A 
 549      2025640D 
 550 0016 0000     		.space	2
 551              	.LC1:
 552 0018 6869740D 		.ascii	"hit\015\012\000"
 552      0A00
 553 001e 0000     		.space	2
 554              	.LC2:
 555 0020 68656C6C 		.ascii	"hello\015\012\000"
 555      6F0D0A00 
 556              	.LC3:
 557 0028 43757272 		.ascii	"Current High Score: %d\015\012\000"
ARM GAS  C:\Users\koppany\AppData\Local\Temp\ccsf4g9Q.s 			page 14


 557      656E7420 
 557      48696768 
 557      2053636F 
 557      72653A20 
 558 0041 000000   		.space	3
 559              	.LC4:
 560 0044 4E657720 		.ascii	"New High Score\015\012\000"
 560      48696768 
 560      2053636F 
 560      72650D0A 
 560      00
 561              		.bss
 562              		.align	2
 563              		.set	.LANCHOR0,. + 0
 564              		.type	time, %object
 565              		.size	time, 4
 566              	time:
 567 0000 00000000 		.space	4
 568              		.type	points, %object
 569              		.size	points, 4
 570              	points:
 571 0004 00000000 		.space	4
 572              		.type	timeout_flag, %object
 573              		.size	timeout_flag, 4
 574              	timeout_flag:
 575 0008 00000000 		.space	4
 576              		.type	finished, %object
 577              		.size	finished, 4
 578              	finished:
 579 000c 00000000 		.space	4
 580              		.text
 581              	.Letext0:
 582              		.file 2 "c:\\program files (x86)\\cypress\\psoc creator\\4.4\\psoc creator\\import\\gnu\\arm\\5.4.
 583              		.file 3 "c:\\program files (x86)\\cypress\\psoc creator\\4.4\\psoc creator\\import\\gnu\\arm\\5.4.
 584              		.file 4 "Generated_Source\\PSoC5/core_cm3.h"
 585              		.file 5 "c:\\program files (x86)\\cypress\\psoc creator\\4.4\\psoc creator\\import\\gnu\\arm\\5.4.
 586              		.file 6 "Generated_Source\\PSoC5/UART_BT.h"
 587              		.file 7 "Generated_Source\\PSoC5/One_Sec_Timer.h"
 588              		.file 8 "Generated_Source\\PSoC5/Target_LED_1.h"
 589              		.file 9 "Generated_Source\\PSoC5/Target_LED_2.h"
 590              		.file 10 "Generated_Source\\PSoC5/Target_LED_3.h"
 591              		.file 11 "Generated_Source\\PSoC5/Debounce_Timer.h"
 592              		.file 12 "Generated_Source\\PSoC5/Target_BTN_1.h"
 593              		.file 13 "Generated_Source\\PSoC5/Target_BTN_2.h"
 594              		.file 14 "Generated_Source\\PSoC5/Target_BTN_3.h"
 595              		.file 15 "Generated_Source\\PSoC5/ISR_One_Sec.h"
 596              		.file 16 "Generated_Source\\PSoC5/ISR_Button_Timeout.h"
 597              		.file 17 "Generated_Source\\PSoC5/EEPROM.h"
 598              		.file 18 "Generated_Source\\PSoC5/LED.h"